((dp0
S'bin'
p1
S'\n======= Carboncoin =======\nBinary: \n60606040525b33600260006101000a81548173ffffffffffffffffffffffffffffffffffffffff021916908302179055505b61065d8061003f6000396000f360606040523615610095576000357c010000000000000000000000000000000000000000000000000000000090048063187625df14610097578063502f4553146100c15780635be38fc0146100f8578063636be27a1461011957806370a082311461013a5780639db48bbb14610166578063b69ef8a814610192578063ee97f7f3146101b5578063ef6506db146101ee57610095565b005b6100bf600480803590602001909190803590602001909190803590602001909190505061020f565b005b6100e06004808035906020019091908035906020019091905050610289565b60405180821515815260200191505060405180910390f35b6101176004808035906020019091908035906020019091905050610406565b005b610138600480803590602001909190803590602001909190505061044d565b005b61015060048080359060200190919050506104e3565b6040518082815260200191505060405180910390f35b61017c6004808035906020019091905050610521565b6040518082815260200191505060405180910390f35b61019f6004805050610565565b6040518082815260200191505060405180910390f35b6101c260048050506105a1565b604051808273ffffffffffffffffffffffffffffffffffffffff16815260200191505060405180910390f35b61020d60048080359060200190919080359060200190919050506105c7565b005b81600060005060008573ffffffffffffffffffffffffffffffffffffffff1681526020019081526020016000206000506000016000508190555080600060005060008573ffffffffffffffffffffffffffffffffffffffff168152602001908152602001600020600050600101600050819055505b505050565b6000600060006000600060005060008773ffffffffffffffffffffffffffffffffffffffff168152602001908152602001600020600050600001600050549250600060005060008773ffffffffffffffffffffffffffffffffffffffff168152602001908152602001600020600050600101600050549150600060005060008773ffffffffffffffffffffffffffffffffffffffff16815260200190815260200160002060005060030160005054600060005060008873ffffffffffffffffffffffffffffffffffffffff168152602001908152602001600020600050600201600050540390508181101561038d57610384868383036105c7565b600193506103fd565b600060005060008773ffffffffffffffffffffffffffffffffffffffff16815260200190815260200160002060005060020160005054600060005060008873ffffffffffffffffffffffffffffffffffffffff168152602001908152602001600020600050600301600050819055505b50505092915050565b80600060005060008473ffffffffffffffffffffffffffffffffffffffff1681526020019081526020016000206000506002016000828282505401925050819055505b5050565b80600160005060008473ffffffffffffffffffffffffffffffffffffffff1681526020019081526020016000206000828282505403925050819055507fd9d0c4ce05bd611ae3e110c5cb3b2d0dc0b995d6c23a6a6085bc65472a26f9448282604051808373ffffffffffffffffffffffffffffffffffffffff1681526020018281526020019250505060405180910390a15b5050565b6000600160005060008373ffffffffffffffffffffffffffffffffffffffff16815260200190815260200160002060005054905061051c565b919050565b6000600060005060008373ffffffffffffffffffffffffffffffffffffffff168152602001908152602001600020600050600101600050549050610560565b919050565b6000600160005060003373ffffffffffffffffffffffffffffffffffffffff16815260200190815260200160002060005054905061059e565b90565b600260009054906101000a900473ffffffffffffffffffffffffffffffffffffffff1681565b80600160005060008473ffffffffffffffffffffffffffffffffffffffff1681526020019081526020016000206000828282505401925050819055507ff84b6f966841690a37326c1cd14baa66ea96c96a1d4aeb62faee80c73a67421b8282604051808373ffffffffffffffffffffffffffffffffffffffff1681526020018281526020019250505060405180910390a15b505056\n'
p2
sS'abi'
p3
S'\n======= Carboncoin =======\nContract JSON ABI\n[{"constant":false,"inputs":[{"name":"target","type":"address"},{"name":"goalTimestamp","type":"uint256"},{"name":"goalUsage","type":"uint256"}],"name":"setGoal","outputs":[],"type":"function"},{"constant":false,"inputs":[{"name":"target","type":"address"},{"name":"currentTimestamp","type":"uint256"}],"name":"checkGoal","outputs":[{"name":"","type":"bool"}],"type":"function"},{"constant":false,"inputs":[{"name":"target","type":"address"},{"name":"usage","type":"uint256"}],"name":"recordUsage","outputs":[],"type":"function"},{"constant":false,"inputs":[{"name":"target","type":"address"},{"name":"amount","type":"uint256"}],"name":"debit","outputs":[],"type":"function"},{"constant":true,"inputs":[{"name":"wallet","type":"address"}],"name":"balanceOf","outputs":[{"name":"","type":"uint256"}],"type":"function"},{"constant":false,"inputs":[{"name":"coinbase","type":"address"}],"name":"getGoal","outputs":[{"name":"","type":"uint256"}],"type":"function"},{"constant":true,"inputs":[],"name":"balance","outputs":[{"name":"","type":"uint256"}],"type":"function"},{"constant":true,"inputs":[],"name":"master","outputs":[{"name":"","type":"address"}],"type":"function"},{"constant":false,"inputs":[{"name":"target","type":"address"},{"name":"amount","type":"uint256"}],"name":"credit","outputs":[],"type":"function"},{"inputs":[],"type":"constructor"},{"anonymous":false,"inputs":[{"indexed":false,"name":"target","type":"address"},{"indexed":false,"name":"amount","type":"uint256"}],"name":"earnCoin","type":"event"},{"anonymous":false,"inputs":[{"indexed":false,"name":"target","type":"address"},{"indexed":false,"name":"amount","type":"uint256"}],"name":"spendCoin","type":"event"}]\n\n'
p4
sV0xb6a78f8380aa0def4852f202f0c6cbe960a10d5a
p5
tp6
.