(dp0
V0x23a6d6deb842656f49ee3e7b46921b44c92fa315
p1
V0x23a6d6deb842656f49ee3e7b46921b44c92fa315:145:1456790400
p2
sV0x6015fb43e26226d80edc1c209ccd99ce2493497b
p3
V0x6015fb43e26226d80edc1c209ccd99ce2493497b:136:1456790400
p4
s.